(lp0
(dp1
Vdomain
p2
V.aliexpress.com
p3
sVsecure
p4
I01
sVvalue
p5
V10.181.239.78.1525713601856.119178.8
p6
sVexpiry
p7
I1841073609
sVpath
p8
V/
p9
sVhttpOnly
p10
I00
sVname
p11
Vali_beacon_id
p12
sa(dp13
Vdomain
p14
V.aliexpress.com
p15
sVname
p16
V_hvn_login
p17
sVvalue
p18
V13
p19
sVpath
p20
g9
sVhttpOnly
p21
I00
sVsecure
p22
I01
sa(dp23
Vdomain
p24
V.aliexpress.com
p25
sVname
p26
Vintl_locale
p27
sVvalue
p28
Ven_US
p29
sVpath
p30
g9
sVhttpOnly
p31
I00
sVsecure
p32
I00
sa(dp33
Vdomain
p34
V.aliexpress.com
p35
sVsecure
p36
I00
sVvalue
p37
Vzero_order=y&x_locale=en_US&x_l=1&last_popup_time=1525713872786&x_user=CN|lee|tina|cnfm|202904555&no_popup_today=n
p38
sVexpiry
p39
F3673270544.53044
sVpath
p40
g9
sVhttpOnly
p41
I00
sVname
p42
Vxman_us_f
p43
sa(dp44
Vdomain
p45
V.aliexpress.com
p46
sVsecure
p47
I01
sVvalue
p48
V10.181.239.78.1525713601856.119178.8
p49
sVexpiry
p50
F3626384466.513449
sVpath
p51
g9
sVhttpOnly
p52
I00
sVname
p53
Vali_apache_id
p54
sa(dp55
Vdomain
p56
V.aliexpress.com
p57
sVsecure
p58
I01
sVvalue
p59
VM3aMaIzY34iZjQ7/kBcy8m+YKIwoVwT5dJ37zw2UaEOmh0EZ/+ql5A==
p60
sVexpiry
p61
F3673197524.438379
sVpath
p62
g9
sVhttpOnly
p63
I01
sVname
p64
Vaep_common_f
p65
sa(dp66
Vdomain
p67
V.aliexpress.com
p68
sVsecure
p69
I00
sVvalue
p70
V1
p71
sVexpiry
p72
I1525786956
sVpath
p73
g9
sVhttpOnly
p74
I00
sVname
p75
V_gat
p76
sa(dp77
Vdomain
p78
V.aliexpress.com
p79
sVsecure
p80
I00
sVvalue
p81
VGA1.2.929267322.1525713609
p82
sVexpiry
p83
I1588858898
sVpath
p84
g9
sVhttpOnly
p85
I00
sVname
p86
V_ga
p87
sa(dp88
Vdomain
p89
V.aliexpress.com
p90
sVsecure
p91
I00
sVvalue
p92
VGA1.2.1229738512.1525713609
p93
sVexpiry
p94
I1525873298
sVpath
p95
g9
sVhttpOnly
p96
I00
sVname
p97
V_gid
p98
sa(dp99
Vdomain
p100
V.aliexpress.com
p101
sVname
p102
Vaep_usuc_t
p103
sVvalue
p104
Vber_l=A0
p105
sVpath
p106
g9
sVhttpOnly
p107
I00
sVsecure
p108
I00
sa(dp109
Vdomain
p110
V.aliexpress.com
p111
sVname
p112
Vali_apache_tracktmp
p113
sVvalue
p114
VW_signed=Y
p115
sVpath
p116
g9
sVhttpOnly
p117
I00
sVsecure
p118
I00
sa(dp119
Vdomain
p120
V.aliexpress.com
p121
sVsecure
p122
I00
sVvalue
p123
VvpZ4E9XYCXwCAdxwEVWDmngV
p124
sVexpiry
p125
F1841146820.095855
sVpath
p126
g9
sVhttpOnly
p127
I00
sVname
p128
Vcna
p129
sa(dp130
Vdomain
p131
V.aliexpress.com
p132
sVname
p133
Vacs_usuc_t
p134
sVvalue
p135
Vacs_rt=dc800a68884b4a9e97b8b8bcef48094b&x_csrf=2lkwgzb1a5mz
p136
sVpath
p137
g9
sVhttpOnly
p138
I00
sVsecure
p139
I00
sa(dp140
Vdomain
p141
V.aliexpress.com
p142
sVname
p143
Vxman_us_t
p144
sVvalue
p145
Vx_lid=cn1500432684&sign=y&x_user=gTd5sNFt9DiBayjlbz6+Hq0p9D9I6aLgiUqKFxVSgUg=&ctoken=1bqlu3c58wwp_&need_popup=y&l_source=aliexpress
p146
sVpath
p147
g9
sVhttpOnly
p148
I00
sVsecure
p149
I00
sa(dp150
Vdomain
p151
V.aliexpress.com
p152
sVsecure
p153
I00
sVvalue
p154
VjajiZ14B4axFIoHP7NwmLiAQ7+pTZCUbseD+qUOPq1rGS49Qjsdynd7ae8Wnzu2DnZqJzg3PspSK8HwYhy/uc4ATNjrqlXu000SIqHezDcxeomwIiNu9zaS/aipeuf1ZNs+hjQkU2rfiUCS4Q96prQWqVpZPTeOVv+a+u8Kutdqv1jLsCcQrx7JyhbxGXB8HwegDIPUFAZV7ol3toCl/RHA48DRIKY7vibOHhuwgsLiRQcFJxpKkXkkUN3v6RU+p7Bz4uRsz5fNwy5vOXOSI85CDuLEl3OpWsqvVARWXcCGP7MpqJdmmoLyT19ses6M1aL4dl1T01noa3cgOuzgNQI3iBCD3b86XqKyK4ukcqrz+qX3/2cvA3BHzFAyh9lpX/yqdbBadwWGvnWhyZl+gelPpEjYoSdpP
p155
sVexpiry
p156
F3673270537.942232
sVpath
p157
g9
sVhttpOnly
p158
I01
sVname
p159
Vxman_f
p160
sa(dp161
Vdomain
p162
V.aliexpress.com
p163
sVsecure
p164
I00
sVvalue
p165
Visfm=y&site=glo&c_tp=USD&x_alimid=202904555&iss=y&region=CN&b_locale=en_US
p166
sVexpiry
p167
F3673270544.530544
sVpath
p168
g9
sVhttpOnly
p169
I00
sVname
p170
Vaep_usuc_f
p171
sa(dp172
Vdomain
p173
V.aliexpress.com
p174
sVsecure
p175
I00
sVvalue
p176
VDx+V71o7CSQdSCGw9yY9WpwfpuNYQ++eYMFhySHLMpihJcBQyXLRaw==
p177
sVexpiry
p178
F3673270544.530637
sVpath
p179
g9
sVhttpOnly
p180
I01
sVname
p181
Vintl_common_forever
p182
sa(dp183
Vdomain
p184
V.aliexpress.com
p185
sVsecure
p186
I00
sVvalue
p187
VBE5OE9tvmEj9ESxsAMRvybRFnyTQZxOjcZwyRXiXutEM2-414F9i2fQZFwa3Qwrh
p188
sVexpiry
p189
I1541338897
sVpath
p190
g9
sVhttpOnly
p191
I00
sVname
p192
Visg
p193
sa(dp194
Vdomain
p195
Vwww.aliexpress.com
p196
sVname
p197
VJSESSIONID
p198
sVvalue
p199
VE314D63915C9BC80B36BC57B9DC55012
p200
sVpath
p201
g9
sVhttpOnly
p202
I01
sVsecure
p203
I00
sa(dp204
Vdomain
p205
V.aliexpress.com
p206
sVsecure
p207
I00
sVvalue
p208
Vms=|mt=2|mid=cn1500432684
p209
sVexpiry
p210
F3673270545.233167
sVpath
p211
g9
sVhttpOnly
p212
I00
sVname
p213
Vali_apache_track
p214
sa(dp215
Vdomain
p216
V.aliexpress.com
p217
sVname
p218
Vxman_t
p219
sVvalue
p220
VDBukKwyi890hzC7H2UbcPkjS2bR9shOtkHwQSP9IC9zlTsESx4W1U/FvUytE5T4aTZhDltUl1kVyva0s8ywJ7dK3BvV3m6dEVWjf2J/zGcALkpTw2nkTZSTXB0k1AmFlFSYJeIpCfreYPPptNiGwWHLMSV2h/ovXjmw4SvwIEXXGNoo65xLRWbXACYMlE6FD02Mgf9A0mxlXYHuJ5o+NohaqV3CF0yCpCATBJUj0AYgp/Aat3KOGqWUex9X82S2Gg+wbzz7lpUPIgX/CqHPdY9iDAfAAhJ2PZuFalqHycwMYwqV3OG0xhGjIKkdmC8FBex4etcdYm9JugxQNIBQdzV1w327+IYLnzT7kCmmLfLWmH/hR/TD4U7gbkf7nT3Xi3sPT7O7Z2+dyxbhdxA/3AizPfv1NAPt3Vs1pLQo29JAvAOj4Vove/40LshP+q+gy2tGBB43/eP7sE8osi6Ca/as8gIGl0Eiatpy5gqfgZjw+mVui+SaT4Ntou/iYa3t4T8jxSgUQtqBhslzCSYWVfZg2vNxTAK85jckAj0JJrvwfvM3BuNnneo766nuG4patepKMNZq+WWi3uXw3VKnKldOZ82iR1Q0eQVdjehV3VZq4w7RAOeCr1248KONzqA2HNeq/mpdtb9RH3n0PQp5gfw==
p221
sVpath
p222
g9
sVhttpOnly
p223
I01
sVsecure
p224
I00
sa.