(lp0
(dp1
Vdomain
p2
V.aliexpress.com
p3
sVsecure
p4
I00
sVvalue
p5
VBGFhWppJn8A2HDO0a00zIV2jcC27ptRqqo2N_MM2XWjHKoH8C17l0I_oiF-s5W04
p6
sVexpiry
p7
I1541252910
sVpath
p8
V/
p9
sVhttpOnly
p10
I00
sVname
p11
Visg
p12
sa(dp13
Vdomain
p14
V.aliexpress.com
p15
sVsecure
p16
I00
sVvalue
p17
VH15gBXCX1VmedZabhBCwAHBhVRylZSrbEL480Rrqv7GCGg4+34JWpA==
p18
sVexpiry
p19
F3673184538.008585
sVpath
p20
g9
sVhttpOnly
p21
I01
sVname
p22
Vaep_common_f
p23
sa(dp24
Vdomain
p25
V.aliexpress.com
p26
sVsecure
p27
I00
sVvalue
p28
V14.103.116.215.1525700774400.383781.0
p29
sVexpiry
p30
F3626384466.474215
sVpath
p31
g9
sVhttpOnly
p32
I00
sVname
p33
Vali_apache_id
p34
sa(dp35
Vdomain
p36
V.aliexpress.com
p37
sVsecure
p38
I00
sVvalue
p39
VX8UY1vNj85uJTFFXmCoFmWhHiuHnyq1+gHVnTQkK1ntHkxj1mrvc4oOkNlyQmW/j7q08OJ/eBOMfW7eOO3Mnxj3QhqdD8ZBFN5KA2TFNzvIuV0l5qKQS0AMkKOwEsHqjgbUZEXA7Nrf23XkZgOl6l8saGNmq7PDOPPd3NgwUaJckQ/IOJDWBwF/FrjNkj/Ks6nLgzn7GTilXq0qhzCCh+d36eoQ96IeczC+4OdNIvC2iU7srGpwNyxRjyv6URsq4zm2eOO+cFYixliTNv/UvEEs+wpZprWDshYOG4uQ2YodPwnC+EP1pvdUt1RPgJDzjcA5+WAa41cIqNnrtjEhjobsiC6IMEBLkXxRhDMQpKP/u1mQTuE0NF+mLd4ro1Z/ZS3GcywmI3tkoVZ+72JmD76PI/wx69NbW
p40
sVexpiry
p41
F3673184538.008777
sVpath
p42
g9
sVhttpOnly
p43
I01
sVname
p44
Vxman_f
p45
sa(dp46
Vdomain
p47
V.aliexpress.com
p48
sVname
p49
Vacs_usuc_t
p50
sVvalue
p51
Vacs_rt=41297ecaee1c49c192f088c10080ec21&x_csrf=y6e7xpypwnqh
p52
sVpath
p53
g9
sVhttpOnly
p54
I00
sVsecure
p55
I00
sa(dp56
Vdomain
p57
V.aliexpress.com
p58
sVsecure
p59
I00
sVvalue
p60
V14.103.116.215.1525700774400.383781.0
p61
sVexpiry
p62
I1841060780
sVpath
p63
g9
sVhttpOnly
p64
I00
sVname
p65
Vali_beacon_id
p66
sa(dp67
Vdomain
p68
V.aliexpress.com
p69
sVsecure
p70
I00
sVvalue
p71
Vp0Z3E/yhZ2wCAQ5ndNfcwbmK
p72
sVexpiry
p73
F1841060780.660333
sVpath
p74
g9
sVhttpOnly
p75
I00
sVname
p76
Vcna
p77
sa(dp78
Vdomain
p79
V.aliexpress.com
p80
sVname
p81
V_hvn_login
p82
sVvalue
p83
V13
p84
sVpath
p85
g9
sVhttpOnly
p86
I00
sVsecure
p87
I01
sa(dp88
Vdomain
p89
V.aliexpress.com
p90
sVname
p91
Vaep_usuc_t
p92
sVvalue
p93
Vber_l=A0
p94
sVpath
p95
g9
sVhttpOnly
p96
I00
sVsecure
p97
I00
sa(dp98
Vdomain
p99
V.aliexpress.com
p100
sVname
p101
Vxman_us_t
p102
sVvalue
p103
Vx_lid=cn1500432684&sign=y&x_user=p6RCss5IZIsio3cYbWfOP/s2xMuyBK4oqFyU5Mna8Xs=&ctoken=e82efh9qf2d9&need_popup=y&l_source=aliexpress
p104
sVpath
p105
g9
sVhttpOnly
p106
I00
sVsecure
p107
I00
sa(dp108
Vdomain
p109
V.aliexpress.com
p110
sVsecure
p111
I00
sVvalue
p112
Vzero_order=y&x_locale=en_US&x_l=1&last_popup_time=1525700885926&x_user=CN|lee|tina|cnfm|202904555&no_popup_today=n
p113
sVexpiry
p114
F3673184556.784874
sVpath
p115
g9
sVhttpOnly
p116
I00
sVname
p117
Vxman_us_f
p118
sa(dp119
Vdomain
p120
V.aliexpress.com
p121
sVname
p122
Vintl_locale
p123
sVvalue
p124
Ven_US
p125
sVpath
p126
g9
sVhttpOnly
p127
I00
sVsecure
p128
I00
sa(dp129
Vdomain
p130
V.aliexpress.com
p131
sVsecure
p132
I00
sVvalue
p133
Visfm=y&site=glo&c_tp=USD&x_alimid=202904555&iss=y&region=CN&b_locale=en_US
p134
sVexpiry
p135
F3673184556.784963
sVpath
p136
g9
sVhttpOnly
p137
I00
sVname
p138
Vaep_usuc_f
p139
sa(dp140
Vdomain
p141
V.aliexpress.com
p142
sVname
p143
Vali_apache_tracktmp
p144
sVvalue
p145
VW_signed=Y
p146
sVpath
p147
g9
sVhttpOnly
p148
I00
sVsecure
p149
I00
sa(dp150
Vdomain
p151
V.aliexpress.com
p152
sVsecure
p153
I00
sVvalue
p154
V1
p155
sVexpiry
p156
I1525700954
sVpath
p157
g9
sVhttpOnly
p158
I00
sVname
p159
V_gat
p160
sa(dp161
Vdomain
p162
V.aliexpress.com
p163
sVsecure
p164
I00
sVvalue
p165
VGA1.2.1166768589.1525700895
p166
sVexpiry
p167
I1588772911
sVpath
p168
g9
sVhttpOnly
p169
I00
sVname
p170
V_ga
p171
sa(dp172
Vdomain
p173
V.aliexpress.com
p174
sVsecure
p175
I00
sVvalue
p176
VGA1.2.108992676.1525700895
p177
sVexpiry
p178
I1525787311
sVpath
p179
g9
sVhttpOnly
p180
I00
sVname
p181
V_gid
p182
sa(dp183
Vdomain
p184
V.aliexpress.com
p185
sVsecure
p186
I00
sVvalue
p187
V2yKj/548N2kmYNWJrTt8gNQ0t6JZigRk9UKy3UvqvfBD8s2VpC7hhg==
p188
sVexpiry
p189
F3673184556.78509
sVpath
p190
g9
sVhttpOnly
p191
I01
sVname
p192
Vintl_common_forever
p193
sa(dp194
Vdomain
p195
Vwww.aliexpress.com
p196
sVname
p197
VJSESSIONID
p198
sVvalue
p199
VCBAADF93C151730DB54E1F3A5FABDFC2
p200
sVpath
p201
g9
sVhttpOnly
p202
I01
sVsecure
p203
I00
sa(dp204
Vdomain
p205
V.aliexpress.com
p206
sVsecure
p207
I00
sVvalue
p208
Vms=|mt=2|mid=cn1500432684
p209
sVexpiry
p210
F3673184558.110488
sVpath
p211
g9
sVhttpOnly
p212
I00
sVname
p213
Vali_apache_track
p214
sa(dp215
Vdomain
p216
V.aliexpress.com
p217
sVname
p218
Vxman_t
p219
sVvalue
p220
VcKCr6BSQfb40SMPd+7Y3D3bOuiCr50JxxqMnFcpz77mQP+l1xLQ92ftHGUzHgSGwwnB//nlwwT+VqAAGP41zJG5YZ2szQgnLY6G+Ioykm4ytNGvZ6Nvl5OQ5LvlUjBn0XnMdcLeKt+QQBuZ912VCEx68kUysAnF8TPJQkSzcLrdht1iR5hqIhuCxTVS1nNJ2lsvkCS0ndWoBQ+m9bk0Z5r87Z8vi4hOMlM6nolVwXYQhWi9EfaPumCm9ByTZhSY87sAl2EXRxmVjDt1ht6ZIQuVmCv7AmT7fL3fqReUurz/riR2pWw1k2TlLAwcvECC+FtLrZzg0YDbpUjOiI8xEHaIx5e6GO4LgDyaaSWA7CD1BSvtDeC1ZpfVVnTkueBCdSWreKwgq1oo4nMjMcYNKpYD2yTADi1hYpnvmnZXJtO1JORg9WTsF5oNVwlfzaV55fp1+royedFfRhVGAbnjn9RgVHjj6qzIcPoU2BzR1eAOuv0dn8jxRByvzcdzX2cOBQzEGin4t0svnCyGtvFX0ltFFi1vBvqRxaWjwHyuv2sh5O40VlstPZUTTAJx8hhPyfL9uBUf0B1851ybXc3OgQpUEcVxlrIhpXNZ1wlQIjpvCAudYcCA7EKgF1GjUAkWwaXcASG9E1JUESWOWabUxaQ==
p221
sVpath
p222
g9
sVhttpOnly
p223
I01
sVsecure
p224
I00
sa.